target datalayout = "e-m:e-p270:32:32-p271:32:32-p272:64:64-i64:64-i128:128-f80:128-n8:16:32:64-S128"
target triple = "x86_64-pc-linux-gnu"

%struct._packet_info = type { ptr, ptr, i32, i32, %struct.nstime_t, %struct.nstime_t, %struct.nstime_t, i8, ptr, ptr, ptr, ptr, %struct._address, %struct._address, %struct._address, %struct._address, %struct._address, %struct._address, i32, ptr, i8, [3 x i8], %struct.anon, i32, i32, i32, i32, ptr, i8, ptr, ptr, i16, i16, i32, i32, i16, i32, i32, ptr, ptr, ptr, i8, i8, i16, i16, i16, i32, i16, i16, ptr, ptr, ptr, ptr, ptr, i32, i32 }
%struct.nstime_t = type { i64, i32 }
%struct._address = type { i32, i32, ptr, ptr }
%struct.anon = type { i8, [3 x i8] }

@hf_x11_reply = internal global i32 0, align 4
@hf_x11_reply_sequencenumber = internal global i32 0, align 4
@hf_x11_replylength = internal global i32 0, align 4
@hf_x11_unused = internal global i32 0, align 4
@hf_x11_randr_GetScreenResourcesCurrent_reply_timestamp = internal global i32 0, align 4
@hf_x11_randr_GetScreenResourcesCurrent_reply_config_timestamp = internal global i32 0, align 4
@hf_x11_randr_GetScreenResourcesCurrent_reply_num_crtcs = internal global i32 0, align 4
@hf_x11_randr_GetScreenResourcesCurrent_reply_num_outputs = internal global i32 0, align 4
@hf_x11_randr_GetScreenResourcesCurrent_reply_num_modes = internal global i32 0, align 4
@hf_x11_randr_GetScreenResourcesCurrent_reply_names_len = internal global i32 0, align 4
@hf_x11_randr_GetScreenResourcesCurrent_reply_crtcs = internal global i32 0, align 4
@hf_x11_randr_GetScreenResourcesCurrent_reply_crtcs_item = internal global i32 0, align 4
@hf_x11_randr_GetScreenResourcesCurrent_reply_outputs = internal global i32 0, align 4
@hf_x11_randr_GetScreenResourcesCurrent_reply_outputs_item = internal global i32 0, align 4
@hf_x11_randr_GetScreenResourcesCurrent_reply_names = internal global i32 0, align 4
@ett_x11_list_of_card32 = internal global i32 0, align 4
@.str.15212 = private unnamed_addr constant [27 x i8] c"-GetScreenResourcesCurrent\00", align 1
@.str.15213 = private unnamed_addr constant [37 x i8] c"%d (randr-GetScreenResourcesCurrent)\00", align 1

; Function Attrs: null_pointer_is_valid sspstrong uwtable
define internal void @listOfByte(ptr noundef %0, ptr noundef %1, ptr noundef %2, i32 noundef %3, i32 noundef %4, i32 noundef %5) #1 {
  %7 = alloca ptr, align 8
  %8 = alloca ptr, align 8
  %9 = alloca ptr, align 8
  %10 = alloca i32, align 4
  %11 = alloca i32, align 4
  %12 = alloca i32, align 4
  store ptr %0, ptr %7, align 8
  store ptr %1, ptr %8, align 8
  store ptr %2, ptr %9, align 8
  store i32 %3, ptr %10, align 4
  store i32 %4, ptr %11, align 4
  store i32 %5, ptr %12, align 4
  %13 = load i32, ptr %11, align 4
  %14 = icmp sle i32 %13, 0
  br i1 %14, label %15, label %16

15:                                               ; preds = %6
  store i32 1, ptr %11, align 4
  br label %16

16:                                               ; preds = %15, %6
  %17 = load ptr, ptr %9, align 8
  %18 = load i32, ptr %10, align 4
  %19 = load ptr, ptr %7, align 8
  %20 = load ptr, ptr %8, align 8
  %21 = load i32, ptr %20, align 4
  %22 = load i32, ptr %11, align 4
  %23 = load i32, ptr %12, align 4
  %24 = call ptr @proto_tree_add_item(ptr noundef %17, i32 noundef %18, ptr noundef %19, i32 noundef %21, i32 noundef %22, i32 noundef %23)
  %25 = load i32, ptr %11, align 4
  %26 = load ptr, ptr %8, align 8
  %27 = load i32, ptr %26, align 4
  %28 = add i32 %27, %25
  store i32 %28, ptr %26, align 4
  ret void
}

; Function Attrs: null_pointer_is_valid sspstrong uwtable
define internal void @listOfCard32(ptr noundef %0, ptr noundef %1, ptr noundef %2, i32 noundef %3, i32 noundef %4, i32 noundef %5, i32 noundef %6) #1 {
  %8 = alloca ptr, align 8
  %9 = alloca ptr, align 8
  %10 = alloca ptr, align 8
  %11 = alloca i32, align 4
  %12 = alloca i32, align 4
  %13 = alloca i32, align 4
  %14 = alloca i32, align 4
  %15 = alloca ptr, align 8
  %16 = alloca ptr, align 8
  store ptr %0, ptr %8, align 8
  store ptr %1, ptr %9, align 8
  store ptr %2, ptr %10, align 8
  store i32 %3, ptr %11, align 4
  store i32 %4, ptr %12, align 4
  store i32 %5, ptr %13, align 4
  store i32 %6, ptr %14, align 4
  call void @llvm.lifetime.start.p0(i64 8, ptr %15) #11
  %17 = load ptr, ptr %10, align 8
  %18 = load i32, ptr %11, align 4
  %19 = load ptr, ptr %8, align 8
  %20 = load ptr, ptr %9, align 8
  %21 = load i32, ptr %20, align 4
  %22 = load i32, ptr %13, align 4
  %23 = mul i32 %22, 4
  %24 = load i32, ptr %14, align 4
  %25 = call ptr @proto_tree_add_item(ptr noundef %17, i32 noundef %18, ptr noundef %19, i32 noundef %21, i32 noundef %23, i32 noundef %24)
  store ptr %25, ptr %15, align 8
  call void @llvm.lifetime.start.p0(i64 8, ptr %16) #11
  %26 = load ptr, ptr %15, align 8
  %27 = load i32, ptr @ett_x11_list_of_card32, align 4
  %28 = call ptr @proto_item_add_subtree(ptr noundef %26, i32 noundef %27)
  store ptr %28, ptr %16, align 8
  br label %29

29:                                               ; preds = %33, %7
  %30 = load i32, ptr %13, align 4
  %31 = add i32 %30, -1
  store i32 %31, ptr %13, align 4
  %32 = icmp ne i32 %30, 0
  br i1 %32, label %33, label %44

33:                                               ; preds = %29
  %34 = load ptr, ptr %16, align 8
  %35 = load i32, ptr %12, align 4
  %36 = load ptr, ptr %8, align 8
  %37 = load ptr, ptr %9, align 8
  %38 = load i32, ptr %37, align 4
  %39 = load i32, ptr %14, align 4
  %40 = call ptr @proto_tree_add_item(ptr noundef %34, i32 noundef %35, ptr noundef %36, i32 noundef %38, i32 noundef 4, i32 noundef %39)
  %41 = load ptr, ptr %9, align 8
  %42 = load i32, ptr %41, align 4
  %43 = add i32 %42, 4
  store i32 %43, ptr %41, align 4
  br label %29, !llvm.loop !45

44:                                               ; preds = %29
  call void @llvm.lifetime.end.p0(i64 8, ptr %16) #11
  call void @llvm.lifetime.end.p0(i64 8, ptr %15) #11
  ret void
}

; Function Attrs: null_pointer_is_valid sspstrong uwtable
define internal void @randrGetScreenResourcesCurrent_Reply(ptr noundef %0, ptr noundef %1, ptr noundef %2, ptr noundef %3, i32 noundef %4) #1 {
  %6 = alloca ptr, align 8
  %7 = alloca ptr, align 8
  %8 = alloca ptr, align 8
  %9 = alloca ptr, align 8
  %10 = alloca i32, align 4
  %11 = alloca i32, align 4
  %12 = alloca i32, align 4
  %13 = alloca i32, align 4
  %14 = alloca i32, align 4
  %15 = alloca i32, align 4
  store ptr %0, ptr %6, align 8
  store ptr %1, ptr %7, align 8
  store ptr %2, ptr %8, align 8
  store ptr %3, ptr %9, align 8
  store i32 %4, ptr %10, align 4
  call void @llvm.lifetime.start.p0(i64 4, ptr %11) #11
  call void @llvm.lifetime.start.p0(i64 4, ptr %12) #11
  call void @llvm.lifetime.start.p0(i64 4, ptr %13) #11
  call void @llvm.lifetime.start.p0(i64 4, ptr %14) #11
  call void @llvm.lifetime.start.p0(i64 4, ptr %15) #11
  %16 = load ptr, ptr %7, align 8
  %17 = getelementptr inbounds nuw %struct._packet_info, ptr %16, i32 0, i32 1
  %18 = load ptr, ptr %17, align 8
  call void (ptr, i32, ptr, ...) @col_append_fstr(ptr noundef %18, i32 noundef 25, ptr noundef @.str.15212)
  %19 = load ptr, ptr %6, align 8
  %20 = load ptr, ptr %8, align 8
  %21 = load ptr, ptr %9, align 8
  %22 = load i32, ptr @hf_x11_reply, align 4
  %23 = load i32, ptr %10, align 4
  %24 = call i32 @field8(ptr noundef %19, ptr noundef %20, ptr noundef %21, i32 noundef %22, i32 noundef %23)
  %25 = load ptr, ptr %9, align 8
  %26 = load i32, ptr @hf_x11_unused, align 4
  %27 = load ptr, ptr %6, align 8
  %28 = load ptr, ptr %8, align 8
  %29 = load i32, ptr %28, align 4
  %30 = call ptr @proto_tree_add_item(ptr noundef %25, i32 noundef %26, ptr noundef %27, i32 noundef %29, i32 noundef 1, i32 noundef 0)
  %31 = load ptr, ptr %8, align 8
  %32 = load i32, ptr %31, align 4
  %33 = add i32 %32, 1
  store i32 %33, ptr %31, align 4
  %34 = load ptr, ptr %6, align 8
  %35 = load ptr, ptr %8, align 8
  %36 = load i32, ptr %35, align 4
  %37 = load i32, ptr %10, align 4
  %38 = call zeroext i16 @tvb_get_uint16(ptr noundef %34, i32 noundef %36, i32 noundef %37)
  %39 = zext i16 %38 to i32
  store i32 %39, ptr %11, align 4
  %40 = load ptr, ptr %9, align 8
  %41 = load i32, ptr @hf_x11_reply_sequencenumber, align 4
  %42 = load ptr, ptr %6, align 8
  %43 = load ptr, ptr %8, align 8
  %44 = load i32, ptr %43, align 4
  %45 = load i32, ptr %11, align 4
  %46 = load i32, ptr %11, align 4
  %47 = call ptr (ptr, i32, ptr, i32, i32, i32, ptr, ...) @proto_tree_add_uint_format_value(ptr noundef %40, i32 noundef %41, ptr noundef %42, i32 noundef %44, i32 noundef 2, i32 noundef %45, ptr noundef @.str.15213, i32 noundef %46)
  %48 = load ptr, ptr %8, align 8
  %49 = load i32, ptr %48, align 4
  %50 = add i32 %49, 2
  store i32 %50, ptr %48, align 4
  %51 = load ptr, ptr %9, align 8
  %52 = load i32, ptr @hf_x11_replylength, align 4
  %53 = load ptr, ptr %6, align 8
  %54 = load ptr, ptr %8, align 8
  %55 = load i32, ptr %54, align 4
  %56 = load i32, ptr %10, align 4
  %57 = call ptr @proto_tree_add_item(ptr noundef %51, i32 noundef %52, ptr noundef %53, i32 noundef %55, i32 noundef 4, i32 noundef %56)
  %58 = load ptr, ptr %8, align 8
  %59 = load i32, ptr %58, align 4
  %60 = add i32 %59, 4
  store i32 %60, ptr %58, align 4
  %61 = load ptr, ptr %9, align 8
  %62 = load i32, ptr @hf_x11_randr_GetScreenResourcesCurrent_reply_timestamp, align 4
  %63 = load ptr, ptr %6, align 8
  %64 = load ptr, ptr %8, align 8
  %65 = load i32, ptr %64, align 4
  %66 = load i32, ptr %10, align 4
  %67 = call ptr @proto_tree_add_item(ptr noundef %61, i32 noundef %62, ptr noundef %63, i32 noundef %65, i32 noundef 4, i32 noundef %66)
  %68 = load ptr, ptr %8, align 8
  %69 = load i32, ptr %68, align 4
  %70 = add i32 %69, 4
  store i32 %70, ptr %68, align 4
  %71 = load ptr, ptr %9, align 8
  %72 = load i32, ptr @hf_x11_randr_GetScreenResourcesCurrent_reply_config_timestamp, align 4
  %73 = load ptr, ptr %6, align 8
  %74 = load ptr, ptr %8, align 8
  %75 = load i32, ptr %74, align 4
  %76 = load i32, ptr %10, align 4
  %77 = call ptr @proto_tree_add_item(ptr noundef %71, i32 noundef %72, ptr noundef %73, i32 noundef %75, i32 noundef 4, i32 noundef %76)
  %78 = load ptr, ptr %8, align 8
  %79 = load i32, ptr %78, align 4
  %80 = add i32 %79, 4
  store i32 %80, ptr %78, align 4
  %81 = load ptr, ptr %6, align 8
  %82 = load ptr, ptr %8, align 8
  %83 = load i32, ptr %82, align 4
  %84 = load i32, ptr %10, align 4
  %85 = call zeroext i16 @tvb_get_uint16(ptr noundef %81, i32 noundef %83, i32 noundef %84)
  %86 = zext i16 %85 to i32
  store i32 %86, ptr %12, align 4
  %87 = load ptr, ptr %9, align 8
  %88 = load i32, ptr @hf_x11_randr_GetScreenResourcesCurrent_reply_num_crtcs, align 4
  %89 = load ptr, ptr %6, align 8
  %90 = load ptr, ptr %8, align 8
  %91 = load i32, ptr %90, align 4
  %92 = load i32, ptr %10, align 4
  %93 = call ptr @proto_tree_add_item(ptr noundef %87, i32 noundef %88, ptr noundef %89, i32 noundef %91, i32 noundef 2, i32 noundef %92)
  %94 = load ptr, ptr %8, align 8
  %95 = load i32, ptr %94, align 4
  %96 = add i32 %95, 2
  store i32 %96, ptr %94, align 4
  %97 = load ptr, ptr %6, align 8
  %98 = load ptr, ptr %8, align 8
  %99 = load i32, ptr %98, align 4
  %100 = load i32, ptr %10, align 4
  %101 = call zeroext i16 @tvb_get_uint16(ptr noundef %97, i32 noundef %99, i32 noundef %100)
  %102 = zext i16 %101 to i32
  store i32 %102, ptr %13, align 4
  %103 = load ptr, ptr %9, align 8
  %104 = load i32, ptr @hf_x11_randr_GetScreenResourcesCurrent_reply_num_outputs, align 4
  %105 = load ptr, ptr %6, align 8
  %106 = load ptr, ptr %8, align 8
  %107 = load i32, ptr %106, align 4
  %108 = load i32, ptr %10, align 4
  %109 = call ptr @proto_tree_add_item(ptr noundef %103, i32 noundef %104, ptr noundef %105, i32 noundef %107, i32 noundef 2, i32 noundef %108)
  %110 = load ptr, ptr %8, align 8
  %111 = load i32, ptr %110, align 4
  %112 = add i32 %111, 2
  store i32 %112, ptr %110, align 4
  %113 = load ptr, ptr %6, align 8
  %114 = load ptr, ptr %8, align 8
  %115 = load i32, ptr %114, align 4
  %116 = load i32, ptr %10, align 4
  %117 = call zeroext i16 @tvb_get_uint16(ptr noundef %113, i32 noundef %115, i32 noundef %116)
  %118 = zext i16 %117 to i32
  store i32 %118, ptr %14, align 4
  %119 = load ptr, ptr %9, align 8
  %120 = load i32, ptr @hf_x11_randr_GetScreenResourcesCurrent_reply_num_modes, align 4
  %121 = load ptr, ptr %6, align 8
  %122 = load ptr, ptr %8, align 8
  %123 = load i32, ptr %122, align 4
  %124 = load i32, ptr %10, align 4
  %125 = call ptr @proto_tree_add_item(ptr noundef %119, i32 noundef %120, ptr noundef %121, i32 noundef %123, i32 noundef 2, i32 noundef %124)
  %126 = load ptr, ptr %8, align 8
  %127 = load i32, ptr %126, align 4
  %128 = add i32 %127, 2
  store i32 %128, ptr %126, align 4
  %129 = load ptr, ptr %6, align 8
  %130 = load ptr, ptr %8, align 8
  %131 = load i32, ptr %130, align 4
  %132 = load i32, ptr %10, align 4
  %133 = call zeroext i16 @tvb_get_uint16(ptr noundef %129, i32 noundef %131, i32 noundef %132)
  %134 = zext i16 %133 to i32
  store i32 %134, ptr %15, align 4
  %135 = load ptr, ptr %9, align 8
  %136 = load i32, ptr @hf_x11_randr_GetScreenResourcesCurrent_reply_names_len, align 4
  %137 = load ptr, ptr %6, align 8
  %138 = load ptr, ptr %8, align 8
  %139 = load i32, ptr %138, align 4
  %140 = load i32, ptr %10, align 4
  %141 = call ptr @proto_tree_add_item(ptr noundef %135, i32 noundef %136, ptr noundef %137, i32 noundef %139, i32 noundef 2, i32 noundef %140)
  %142 = load ptr, ptr %8, align 8
  %143 = load i32, ptr %142, align 4
  %144 = add i32 %143, 2
  store i32 %144, ptr %142, align 4
  %145 = load ptr, ptr %9, align 8
  %146 = load i32, ptr @hf_x11_unused, align 4
  %147 = load ptr, ptr %6, align 8
  %148 = load ptr, ptr %8, align 8
  %149 = load i32, ptr %148, align 4
  %150 = call ptr @proto_tree_add_item(ptr noundef %145, i32 noundef %146, ptr noundef %147, i32 noundef %149, i32 noundef 8, i32 noundef 0)
  %151 = load ptr, ptr %8, align 8
  %152 = load i32, ptr %151, align 4
  %153 = add i32 %152, 8
  store i32 %153, ptr %151, align 4
  %154 = load ptr, ptr %6, align 8
  %155 = load ptr, ptr %8, align 8
  %156 = load ptr, ptr %9, align 8
  %157 = load i32, ptr @hf_x11_randr_GetScreenResourcesCurrent_reply_crtcs, align 4
  %158 = load i32, ptr @hf_x11_randr_GetScreenResourcesCurrent_reply_crtcs_item, align 4
  %159 = load i32, ptr %12, align 4
  %160 = load i32, ptr %10, align 4
  call void @listOfCard32(ptr noundef %154, ptr noundef %155, ptr noundef %156, i32 noundef %157, i32 noundef %158, i32 noundef %159, i32 noundef %160)
  %161 = load ptr, ptr %6, align 8
  %162 = load ptr, ptr %8, align 8
  %163 = load ptr, ptr %9, align 8
  %164 = load i32, ptr @hf_x11_randr_GetScreenResourcesCurrent_reply_outputs, align 4
  %165 = load i32, ptr @hf_x11_randr_GetScreenResourcesCurrent_reply_outputs_item, align 4
  %166 = load i32, ptr %13, align 4
  %167 = load i32, ptr %10, align 4
  call void @listOfCard32(ptr noundef %161, ptr noundef %162, ptr noundef %163, i32 noundef %164, i32 noundef %165, i32 noundef %166, i32 noundef %167)
  %168 = load ptr, ptr %6, align 8
  %169 = load ptr, ptr %8, align 8
  %170 = load ptr, ptr %9, align 8
  %171 = load i32, ptr %10, align 4
  %172 = load i32, ptr %14, align 4
  call void @struct_randr_ModeInfo(ptr noundef %168, ptr noundef %169, ptr noundef %170, i32 noundef %171, i32 noundef %172)
  %173 = load ptr, ptr %6, align 8
  %174 = load ptr, ptr %8, align 8
  %175 = load ptr, ptr %9, align 8
  %176 = load i32, ptr @hf_x11_randr_GetScreenResourcesCurrent_reply_names, align 4
  %177 = load i32, ptr %15, align 4
  %178 = load i32, ptr %10, align 4
  call void @listOfByte(ptr noundef %173, ptr noundef %174, ptr noundef %175, i32 noundef %176, i32 noundef %177, i32 noundef %178)
  call void @llvm.lifetime.end.p0(i64 4, ptr %15) #11
  call void @llvm.lifetime.end.p0(i64 4, ptr %14) #11
  call void @llvm.lifetime.end.p0(i64 4, ptr %13) #11
  call void @llvm.lifetime.end.p0(i64 4, ptr %12) #11
  call void @llvm.lifetime.end.p0(i64 4, ptr %11) #11
  ret void
}