; Function Attrs: null_pointer_is_valid sspstrong uwtable
define internal void @randrGetScreenResourcesCurrent_Reply(ptr noundef %0, ptr noundef readonly captures(none) %1, ptr noundef captures(none) %2, ptr noundef %3, i32 noundef %4) #1 {
  %6 = getelementptr inbounds nuw i8, ptr %1, i64 8
  %7 = load ptr, ptr %6, align 8
  tail call void (ptr, i32, ptr, ...) @col_append_fstr(ptr noundef %7, i32 noundef 25, ptr noundef nonnull @.str.15212)
  %8 = load i32, ptr @hf_x11_reply, align 4
  %9 = tail call fastcc i32 @field8(ptr noundef %0, ptr noundef %2, ptr noundef %3, i32 noundef %8, i32 noundef %4)
  %10 = load i32, ptr @hf_x11_unused, align 4
  %11 = load i32, ptr %2, align 4
  %12 = tail call ptr @proto_tree_add_item(ptr noundef %3, i32 noundef %10, ptr noundef %0, i32 noundef %11, i32 noundef 1, i32 noundef 0)
  %13 = load i32, ptr %2, align 4
  %14 = add i32 %13, 1
  store i32 %14, ptr %2, align 4
  %15 = tail call zeroext i16 @tvb_get_uint16(ptr noundef %0, i32 noundef %14, i32 noundef %4)
  %16 = zext i16 %15 to i32
  %17 = load i32, ptr @hf_x11_reply_sequencenumber, align 4
  %18 = load i32, ptr %2, align 4
  %19 = tail call ptr (ptr, i32, ptr, i32, i32, i32, ptr, ...) @proto_tree_add_uint_format_value(ptr noundef %3, i32 noundef %17, ptr noundef %0, i32 noundef %18, i32 noundef 2, i32 noundef %16, ptr noundef nonnull @.str.15213, i32 noundef %16)
  %20 = load i32, ptr %2, align 4
  %21 = add i32 %20, 2
  store i32 %21, ptr %2, align 4
  %22 = load i32, ptr @hf_x11_replylength, align 4
  %23 = tail call ptr @proto_tree_add_item(ptr noundef %3, i32 noundef %22, ptr noundef %0, i32 noundef %21, i32 noundef 4, i32 noundef %4)
  %24 = load i32, ptr %2, align 4
  %25 = add i32 %24, 4
  store i32 %25, ptr %2, align 4
  %26 = load i32, ptr @hf_x11_randr_GetScreenResourcesCurrent_reply_timestamp, align 4
  %27 = tail call ptr @proto_tree_add_item(ptr noundef %3, i32 noundef %26, ptr noundef %0, i32 noundef %25, i32 noundef 4, i32 noundef %4)
  %28 = load i32, ptr %2, align 4
  %29 = add i32 %28, 4
  store i32 %29, ptr %2, align 4
  %30 = load i32, ptr @hf_x11_randr_GetScreenResourcesCurrent_reply_config_timestamp, align 4
  %31 = tail call ptr @proto_tree_add_item(ptr noundef %3, i32 noundef %30, ptr noundef %0, i32 noundef %29, i32 noundef 4, i32 noundef %4)
  %32 = load i32, ptr %2, align 4
  %33 = add i32 %32, 4
  store i32 %33, ptr %2, align 4
  %34 = tail call zeroext i16 @tvb_get_uint16(ptr noundef %0, i32 noundef %33, i32 noundef %4)
  %35 = zext i16 %34 to i32
  %36 = load i32, ptr @hf_x11_randr_GetScreenResourcesCurrent_reply_num_crtcs, align 4
  %37 = load i32, ptr %2, align 4
  %38 = tail call ptr @proto_tree_add_item(ptr noundef %3, i32 noundef %36, ptr noundef %0, i32 noundef %37, i32 noundef 2, i32 noundef %4)
  %39 = load i32, ptr %2, align 4
  %40 = add i32 %39, 2
  store i32 %40, ptr %2, align 4
  %41 = tail call zeroext i16 @tvb_get_uint16(ptr noundef %0, i32 noundef %40, i32 noundef %4)
  %42 = zext i16 %41 to i32
  %43 = load i32, ptr @hf_x11_randr_GetScreenResourcesCurrent_reply_num_outputs, align 4
  %44 = load i32, ptr %2, align 4
  %45 = tail call ptr @proto_tree_add_item(ptr noundef %3, i32 noundef %43, ptr noundef %0, i32 noundef %44, i32 noundef 2, i32 noundef %4)
  %46 = load i32, ptr %2, align 4
  %47 = add i32 %46, 2
  store i32 %47, ptr %2, align 4
  %48 = tail call zeroext i16 @tvb_get_uint16(ptr noundef %0, i32 noundef %47, i32 noundef %4)
  %49 = load i32, ptr @hf_x11_randr_GetScreenResourcesCurrent_reply_num_modes, align 4
  %50 = load i32, ptr %2, align 4
  %51 = tail call ptr @proto_tree_add_item(ptr noundef %3, i32 noundef %49, ptr noundef %0, i32 noundef %50, i32 noundef 2, i32 noundef %4)
  %52 = load i32, ptr %2, align 4
  %53 = add i32 %52, 2
  store i32 %53, ptr %2, align 4
  %54 = tail call zeroext i16 @tvb_get_uint16(ptr noundef %0, i32 noundef %53, i32 noundef %4)
  %55 = load i32, ptr @hf_x11_randr_GetScreenResourcesCurrent_reply_names_len, align 4
  %56 = load i32, ptr %2, align 4
  %57 = tail call ptr @proto_tree_add_item(ptr noundef %3, i32 noundef %55, ptr noundef %0, i32 noundef %56, i32 noundef 2, i32 noundef %4)
  %58 = load i32, ptr %2, align 4
  %59 = add i32 %58, 2
  store i32 %59, ptr %2, align 4
  %60 = load i32, ptr @hf_x11_unused, align 4
  %61 = tail call ptr @proto_tree_add_item(ptr noundef %3, i32 noundef %60, ptr noundef %0, i32 noundef %59, i32 noundef 8, i32 noundef 0)
  %62 = load i32, ptr %2, align 4
  %63 = add i32 %62, 8
  store i32 %63, ptr %2, align 4
  %64 = load i32, ptr @hf_x11_randr_GetScreenResourcesCurrent_reply_crtcs, align 4
  %65 = load i32, ptr @hf_x11_randr_GetScreenResourcesCurrent_reply_crtcs_item, align 4
  %66 = shl nuw nsw i32 %35, 2
  %67 = tail call ptr @proto_tree_add_item(ptr noundef %3, i32 noundef %64, ptr noundef %0, i32 noundef %63, i32 noundef %66, i32 noundef %4)
  %68 = load i32, ptr @ett_x11_list_of_card32, align 4
  %69 = tail call ptr @proto_item_add_subtree(ptr noundef %67, i32 noundef %68)
  %.not13.i = icmp eq i16 %34, 0
  %.pre = load i32, ptr %2, align 4
  br i1 %.not13.i, label %listOfCard32.exit, label %.lr.ph.i

.lr.ph.i:                                         ; preds = %5, %.lr.ph.i
  %70 = phi i32 [ %74, %.lr.ph.i ], [ %.pre, %5 ]
  %.014.i = phi i32 [ %71, %.lr.ph.i ], [ %35, %5 ]
  %71 = add nsw i32 %.014.i, -1
  %72 = tail call ptr @proto_tree_add_item(ptr noundef %69, i32 noundef %65, ptr noundef %0, i32 noundef %70, i32 noundef 4, i32 noundef %4)
  %73 = load i32, ptr %2, align 4
  %74 = add i32 %73, 4
  store i32 %74, ptr %2, align 4
  %.not.i = icmp eq i32 %71, 0
  br i1 %.not.i, label %listOfCard32.exit, label %.lr.ph.i, !llvm.loop !44

listOfCard32.exit:                                ; preds = %.lr.ph.i, %5
  %75 = phi i32 [ %.pre, %5 ], [ %74, %.lr.ph.i ]
  %76 = load i32, ptr @hf_x11_randr_GetScreenResourcesCurrent_reply_outputs, align 4
  %77 = load i32, ptr @hf_x11_randr_GetScreenResourcesCurrent_reply_outputs_item, align 4
  %78 = shl nuw nsw i32 %42, 2
  %79 = tail call ptr @proto_tree_add_item(ptr noundef %3, i32 noundef %76, ptr noundef %0, i32 noundef %75, i32 noundef %78, i32 noundef %4)
  %80 = load i32, ptr @ett_x11_list_of_card32, align 4
  %81 = tail call ptr @proto_item_add_subtree(ptr noundef %79, i32 noundef %80)
  %.not13.i88 = icmp eq i16 %41, 0
  br i1 %.not13.i88, label %listOfCard32.exit94, label %.lr.ph.preheader.i89

.lr.ph.preheader.i89:                             ; preds = %listOfCard32.exit
  %.pre.i90 = load i32, ptr %2, align 4
  br label %.lr.ph.i91

.lr.ph.i91:                                       ; preds = %.lr.ph.i91, %.lr.ph.preheader.i89
  %82 = phi i32 [ %86, %.lr.ph.i91 ], [ %.pre.i90, %.lr.ph.preheader.i89 ]
  %.014.i92 = phi i32 [ %83, %.lr.ph.i91 ], [ %42, %.lr.ph.preheader.i89 ]
  %83 = add nsw i32 %.014.i92, -1
  %84 = tail call ptr @proto_tree_add_item(ptr noundef %81, i32 noundef %77, ptr noundef %0, i32 noundef %82, i32 noundef 4, i32 noundef %4)
  %85 = load i32, ptr %2, align 4
  %86 = add i32 %85, 4
  store i32 %86, ptr %2, align 4
  %.not.i93 = icmp eq i32 %83, 0
  br i1 %.not.i93, label %listOfCard32.exit94, label %.lr.ph.i91, !llvm.loop !44

listOfCard32.exit94:                              ; preds = %.lr.ph.i91, %listOfCard32.exit
  %87 = zext i16 %48 to i32
  tail call fastcc void @struct_randr_ModeInfo(ptr noundef %0, ptr noundef %2, ptr noundef %3, i32 noundef %4, i32 noundef %87)
  %88 = load i32, ptr @hf_x11_randr_GetScreenResourcesCurrent_reply_names, align 4
  %89 = tail call i16 @llvm.umax.i16(i16 %54, i16 1)
  %90 = zext i16 %89 to i32
  %91 = load i32, ptr %2, align 4
  %92 = tail call ptr @proto_tree_add_item(ptr noundef %3, i32 noundef %88, ptr noundef %0, i32 noundef %91, i32 noundef %90, i32 noundef %4)
  %93 = load i32, ptr %2, align 4
  %94 = add i32 %93, %90
  store i32 %94, ptr %2, align 4
  ret void
}